; Function Attrs: mustprogress uwtable
define hidden noundef nonnull align 8 dereferenceable(8) ptr @_ZN3smt12display_smt2ERSoN3sat7literalER11ast_managerPKP4expr(ptr noundef nonnull returned align 8 dereferenceable(8) %0, i32 %1, ptr noundef nonnull align 8 dereferenceable(976) %2, ptr noundef readonly captures(none) %3) local_unnamed_addr #4 personality ptr @__gxx_personality_v0 {
  %5 = alloca %struct.mk_pp, align 8
  %6 = alloca %struct.mk_pp, align 8
  %7 = load i32, ptr @_ZN3smtL12true_literalE, align 4, !tbaa !3
  %8 = icmp eq i32 %1, %7
  br i1 %8, label %9, label %11

9:                                                ; preds = %4
  %10 = tail call noundef nonnull align 8 dereferenceable(8) ptr @_ZSt16__ostream_insertIcSt11char_traitsIcEERSt13basic_ostreamIT_T0_ES6_PKS3_l(ptr noundef nonnull align 8 dereferenceable(8) %0, ptr noundef nonnull @.str, i64 noundef 4)
  br label %46

11:                                               ; preds = %4
  %12 = load i32, ptr @_ZN3smtL13false_literalE, align 4, !tbaa !3
  %13 = icmp eq i32 %1, %12
  br i1 %13, label %14, label %16

14:                                               ; preds = %11
  %15 = tail call noundef nonnull align 8 dereferenceable(8) ptr @_ZSt16__ostream_insertIcSt11char_traitsIcEERSt13basic_ostreamIT_T0_ES6_PKS3_l(ptr noundef nonnull align 8 dereferenceable(8) %0, ptr noundef nonnull @.str.3, i64 noundef 5)
  br label %46

16:                                               ; preds = %11
  %17 = icmp eq i32 %1, -2
  br i1 %17, label %18, label %20

18:                                               ; preds = %16
  %19 = tail call noundef nonnull align 8 dereferenceable(8) ptr @_ZSt16__ostream_insertIcSt11char_traitsIcEERSt13basic_ostreamIT_T0_ES6_PKS3_l(ptr noundef nonnull align 8 dereferenceable(8) %0, ptr noundef nonnull @.str.4, i64 noundef 4)
  br label %46

20:                                               ; preds = %16
  %21 = and i32 %1, 1
  %.not = icmp eq i32 %21, 0
  br i1 %.not, label %35, label %22

22:                                               ; preds = %20
  %23 = tail call noundef nonnull align 8 dereferenceable(8) ptr @_ZSt16__ostream_insertIcSt11char_traitsIcEERSt13basic_ostreamIT_T0_ES6_PKS3_l(ptr noundef nonnull align 8 dereferenceable(8) %0, ptr noundef nonnull @.str.5, i64 noundef 5)
  call void @llvm.lifetime.start.p0(i64 48, ptr nonnull %5) #8
  %24 = lshr i32 %1, 1
  %25 = zext nneg i32 %24 to i64
  %26 = getelementptr inbounds nuw ptr, ptr %3, i64 %25
  %27 = load ptr, ptr %26, align 8, !tbaa !8
  call void @_ZN11mk_ismt2_ppC2EP3astR11ast_managerjjPKc(ptr noundef nonnull align 8 dereferenceable(48) %5, ptr noundef %27, ptr noundef nonnull align 8 dereferenceable(976) %2, i32 noundef 3, i32 noundef 0, ptr noundef null)
  %28 = invoke noundef nonnull align 8 dereferenceable(8) ptr @_ZlsRSoRK11mk_ismt2_pp(ptr noundef nonnull align 8 dereferenceable(8) %0, ptr noundef nonnull align 8 dereferenceable(48) %5)
          to label %29 unwind label %32

29:                                               ; preds = %22
  %30 = invoke noundef nonnull align 8 dereferenceable(8) ptr @_ZSt16__ostream_insertIcSt11char_traitsIcEERSt13basic_ostreamIT_T0_ES6_PKS3_l(ptr noundef nonnull align 8 dereferenceable(8) %28, ptr noundef nonnull @.str.6, i64 noundef 1)
          to label %_ZStlsISt11char_traitsIcEERSt13basic_ostreamIcT_ES5_PKc.exit unwind label %32

_ZStlsISt11char_traitsIcEERSt13basic_ostreamIcT_ES5_PKc.exit: ; preds = %29
  %31 = getelementptr inbounds nuw i8, ptr %5, i64 16
  call void @_ZN10params_refD1Ev(ptr noundef nonnull align 8 dereferenceable(8) %31) #8
  call void @llvm.lifetime.end.p0(i64 48, ptr nonnull %5) #8
  br label %46

32:                                               ; preds = %29, %22
  %33 = landingpad { ptr, i32 }
          cleanup
  %34 = getelementptr inbounds nuw i8, ptr %5, i64 16
  call void @_ZN10params_refD1Ev(ptr noundef nonnull align 8 dereferenceable(8) %34) #8
  call void @llvm.lifetime.end.p0(i64 48, ptr nonnull %5) #8
  br label %47

35:                                               ; preds = %20
  call void @llvm.lifetime.start.p0(i64 48, ptr nonnull %6) #8
  %36 = lshr exact i32 %1, 1
  %37 = zext nneg i32 %36 to i64
  %38 = getelementptr inbounds nuw ptr, ptr %3, i64 %37
  %39 = load ptr, ptr %38, align 8, !tbaa !8
  call void @_ZN11mk_ismt2_ppC2EP3astR11ast_managerjjPKc(ptr noundef nonnull align 8 dereferenceable(48) %6, ptr noundef %39, ptr noundef nonnull align 8 dereferenceable(976) %2, i32 noundef 3, i32 noundef 0, ptr noundef null)
  %40 = invoke noundef nonnull align 8 dereferenceable(8) ptr @_ZlsRSoRK11mk_ismt2_pp(ptr noundef nonnull align 8 dereferenceable(8) %0, ptr noundef nonnull align 8 dereferenceable(48) %6)
          to label %41 unwind label %43

41:                                               ; preds = %35
  %42 = getelementptr inbounds nuw i8, ptr %6, i64 16
  call void @_ZN10params_refD1Ev(ptr noundef nonnull align 8 dereferenceable(8) %42) #8
  call void @llvm.lifetime.end.p0(i64 48, ptr nonnull %6) #8
  br label %46

43:                                               ; preds = %35
  %44 = landingpad { ptr, i32 }
          cleanup
  %45 = getelementptr inbounds nuw i8, ptr %6, i64 16
  call void @_ZN10params_refD1Ev(ptr noundef nonnull align 8 dereferenceable(8) %45) #8
  call void @llvm.lifetime.end.p0(i64 48, ptr nonnull %6) #8
  br label %47

46:                                               ; preds = %14, %_ZStlsISt11char_traitsIcEERSt13basic_ostreamIcT_ES5_PKc.exit, %41, %18, %9
  ret ptr %0

47:                                               ; preds = %43, %32
  %.pn = phi { ptr, i32 } [ %33, %32 ], [ %44, %43 ]
  resume { ptr, i32 } %.pn
}